; Function Attrs: mustprogress uwtable
define void @_ZN8QuantLib16FxSwapRateHelper6acceptERNS_14AcyclicVisitorE(ptr noundef nonnull align 8 dereferenceable(320) %this, ptr noundef nonnull align 8 dereferenceable(8) %v) unnamed_addr #7 align 2 {
entry:
  %0 = tail call ptr @__dynamic_cast(ptr nonnull %v, ptr nonnull @_ZTIN8QuantLib14AcyclicVisitorE, ptr nonnull @_ZTIN8QuantLib7VisitorINS_16FxSwapRateHelperEEE, i64 -2) #26
  %cmp.not = icmp eq ptr %0, null
  br i1 %cmp.not, label %if.else, label %if.then

if.then:                                          ; preds = %entry
  %vtable = load ptr, ptr %0, align 8, !tbaa !35
  %vfn = getelementptr inbounds i8, ptr %vtable, i64 16
  %1 = load ptr, ptr %vfn, align 8
  tail call void %1(ptr noundef nonnull align 8 dereferenceable(8) %0, ptr noundef nonnull align 8 dereferenceable(320) %this)
  br label %if.end

if.else:                                          ; preds = %entry
  tail call void @_ZN8QuantLib15BootstrapHelperINS_18YieldTermStructureEE6acceptERNS_14AcyclicVisitorE(ptr noundef nonnull align 8 dereferenceable(176) %this, ptr noundef nonnull align 8 dereferenceable(8) %v)
  br label %if.end

if.end:                                           ; preds = %if.else, %if.then
  ret void
}